; Function Attrs: null_pointer_is_valid sspstrong uwtable
define internal void @bssmap_uplink_rej_cmd(ptr noundef %0, ptr noundef %1, ptr noundef %2, i32 noundef %3, i32 noundef %4) #1 {
  %6 = icmp sgt i32 %4, 0
  br i1 %6, label %7, label %13

7:                                                ; preds = %5
  %8 = tail call zeroext i16 @elem_tlv(ptr noundef %0, ptr noundef %1, ptr noundef %2, i8 noundef zeroext 4, i32 noundef 0, i32 noundef 4, i32 noundef %3, i32 noundef %4, ptr noundef null)
  %.not = icmp eq i16 %8, 0
  br i1 %.not, label %13, label %9

9:                                                ; preds = %7
  %10 = zext i16 %8 to i32
  %11 = add i32 %3, %10
  %12 = sub nsw i32 %4, %10
  br label %16

13:                                               ; preds = %7, %5
  %14 = tail call ptr @get_gsm_a_msg_string(i32 noundef 0, i32 noundef 4)
  %15 = tail call ptr (ptr, ptr, ptr, ptr, i32, i32, ptr, ...) @proto_tree_add_expert_format(ptr noundef %1, ptr noundef %2, ptr noundef nonnull @ei_gsm_a_bssmap_missing_mandatory_element, ptr noundef %0, i32 noundef %3, i32 noundef 0, ptr noundef nonnull @.str.139, i32 noundef 4, ptr noundef %14, ptr noundef nonnull @.str.137)
  br label %16

16:                                               ; preds = %13, %9
  %.051 = phi i32 [ %11, %9 ], [ %3, %13 ]
  %.0 = phi i32 [ %12, %9 ], [ %4, %13 ]
  %17 = icmp slt i32 %.0, 1
  br i1 %17, label %37, label %18

18:                                               ; preds = %16
  %19 = tail call zeroext i16 @elem_tv(ptr noundef %0, ptr noundef %1, ptr noundef %2, i8 noundef zeroext 106, i32 noundef 0, i32 noundef 106, i32 noundef %.051, ptr noundef nonnull @.str.1129)
  %20 = zext i16 %19 to i32
  %21 = sub nsw i32 %.0, %20
  %22 = icmp slt i32 %21, 1
  br i1 %22, label %37, label %23

23:                                               ; preds = %18
  %24 = add i32 %.051, %20
  %25 = tail call zeroext i16 @elem_tv(ptr noundef %0, ptr noundef %1, ptr noundef %2, i8 noundef zeroext 106, i32 noundef 0, i32 noundef 106, i32 noundef %24, ptr noundef nonnull @.str.1130)
  %26 = zext i16 %25 to i32
  %27 = sub nsw i32 %21, %26
  %28 = icmp slt i32 %27, 1
  br i1 %28, label %37, label %29

29:                                               ; preds = %23
  %30 = add i32 %24, %26
  %31 = tail call zeroext i16 @elem_tlv(ptr noundef %0, ptr noundef %1, ptr noundef %2, i8 noundef zeroext 108, i32 noundef 0, i32 noundef 108, i32 noundef %30, i32 noundef %27, ptr noundef null)
  %32 = zext i16 %31 to i32
  %.not63 = icmp eq i32 %27, %32
  br i1 %.not63, label %37, label %33

33:                                               ; preds = %29
  %34 = sub nsw i32 %27, %32
  %35 = add i32 %30, %32
  %36 = tail call ptr @proto_tree_add_expert(ptr noundef %1, ptr noundef %2, ptr noundef nonnull @ei_gsm_a_bssmap_extraneous_data, ptr noundef %0, i32 noundef %35, i32 noundef %34)
  br label %37

37:                                               ; preds = %29, %33, %23, %18, %16
  ret void
}